target datalayout = "e-m:e-p270:32:32-p271:32:32-p272:64:64-i64:64-i128:128-f80:128-n8:16:32:64-S128"
target triple = "x86_64-pc-linux-gnu"

%"class.Ipopt::FilterLSAcceptor" = type { %"class.Ipopt::BacktrackingLSAcceptor.base", double, double, double, double, double, double, double, double, double, double, double, i32, double, double, i32, i32, double, i8, i8, i32, i32, double, double, double, double, double, double, %"class.Ipopt::Filter", i8, i32, i32, %"class.Ipopt::SmartPtr.3" }
%"class.Ipopt::BacktrackingLSAcceptor.base" = type { %"class.Ipopt::AlgorithmStrategyObject.base" }
%"class.Ipopt::AlgorithmStrategyObject.base" = type <{ %"class.Ipopt::ReferencedObject.base", [4 x i8], %"class.Ipopt::SmartPtr", %"class.Ipopt::SmartPtr.0", %"class.Ipopt::SmartPtr.1", %"class.Ipopt::SmartPtr.2", i8 }>
%"class.Ipopt::ReferencedObject.base" = type <{ ptr, i32 }>
%"class.Ipopt::SmartPtr" = type { ptr }
%"class.Ipopt::SmartPtr.0" = type { ptr }
%"class.Ipopt::SmartPtr.1" = type { ptr }
%"class.Ipopt::SmartPtr.2" = type { ptr }
%"class.Ipopt::Filter" = type { i32, %"class.std::__cxx11::list" }
%"class.std::__cxx11::list" = type { %"class.std::__cxx11::_List_base" }
%"class.std::__cxx11::_List_base" = type { %"struct.std::__cxx11::_List_base<Ipopt::FilterEntry *, std::allocator<Ipopt::FilterEntry *>>::_List_impl" }
%"struct.std::__cxx11::_List_base<Ipopt::FilterEntry *, std::allocator<Ipopt::FilterEntry *>>::_List_impl" = type { %"struct.std::__detail::_List_node_header" }
%"struct.std::__detail::_List_node_header" = type { %"struct.std::__detail::_List_node_base", i64 }
%"struct.std::__detail::_List_node_base" = type { ptr, ptr }
%"class.Ipopt::SmartPtr.3" = type { ptr }
%"class.Ipopt::AlgorithmStrategyObject" = type <{ %"class.Ipopt::ReferencedObject.base", [4 x i8], %"class.Ipopt::SmartPtr", %"class.Ipopt::SmartPtr.0", %"class.Ipopt::SmartPtr.1", %"class.Ipopt::SmartPtr.2", i8, [7 x i8] }>

@.str.85 = private unnamed_addr constant [107 x i8] c"Rejecting trial point because barrier objective function increasing too rapidly (from %27.15e to %27.15e)\0A\00", align 1

; Function Attrs: mustprogress nounwind uwtable
define linkonce_odr noundef nonnull align 8 dereferenceable(40) ptr @_ZNK5Ipopt8SmartPtrIKNS_10JournalistEEdeEv(ptr noundef nonnull align 8 dereferenceable(8) %0) #5 comdat align 2 {
  %2 = alloca ptr, align 8
  store ptr %0, ptr %2, align 8
  %3 = load ptr, ptr %2, align 8
  %4 = getelementptr inbounds %"class.Ipopt::SmartPtr", ptr %3, i32 0, i32 0
  %5 = load ptr, ptr %4, align 8
  ret ptr %5
}

; Function Attrs: mustprogress uwtable
define linkonce_odr noundef nonnull align 8 dereferenceable(40) ptr @_ZNK5Ipopt23AlgorithmStrategyObject5JnlstEv(ptr noundef nonnull align 8 dereferenceable(49) %0) #4 comdat align 2 {
  %2 = alloca ptr, align 8
  store ptr %0, ptr %2, align 8
  %3 = load ptr, ptr %2, align 8
  %4 = getelementptr inbounds %"class.Ipopt::AlgorithmStrategyObject", ptr %3, i32 0, i32 2
  %5 = call noundef nonnull align 8 dereferenceable(40) ptr @_ZNK5Ipopt8SmartPtrIKNS_10JournalistEEdeEv(ptr noundef nonnull align 8 dereferenceable(8) %4)
  ret ptr %5
}

; Function Attrs: mustprogress nounwind uwtable
define linkonce_odr noundef double @_ZSt3absd(double noundef %0) #5 comdat {
  %2 = alloca double, align 8
  store double %0, ptr %2, align 8
  %3 = load double, ptr %2, align 8
  %4 = call double @llvm.fabs.f64(double %3)
  ret double %4
}

; Function Attrs: mustprogress uwtable
define noundef zeroext i1 @_ZNK5Ipopt16FilterLSAcceptor28IsAcceptableToCurrentIterateEddb(ptr noundef nonnull align 8 dereferenceable(304) %0, double noundef %1, double noundef %2, i1 noundef zeroext %3) #4 align 2 {
  %5 = alloca i1, align 1
  %6 = alloca ptr, align 8
  %7 = alloca double, align 8
  %8 = alloca double, align 8
  %9 = alloca i8, align 1
  %10 = alloca double, align 8
  store ptr %0, ptr %6, align 8
  store double %1, ptr %7, align 8
  store double %2, ptr %8, align 8
  %11 = zext i1 %3 to i8
  store i8 %11, ptr %9, align 1
  %12 = load ptr, ptr %6, align 8
  %13 = load i8, ptr %9, align 1
  %14 = trunc i8 %13 to i1
  br i1 %14, label %50, label %15

15:                                               ; preds = %4
  %16 = load double, ptr %7, align 8
  %17 = getelementptr inbounds %"class.Ipopt::FilterLSAcceptor", ptr %12, i32 0, i32 23
  %18 = load double, ptr %17, align 8
  %19 = fcmp ogt double %16, %18
  br i1 %19, label %20, label %50

20:                                               ; preds = %15
  store double 1.000000e+00, ptr %10, align 8
  %21 = getelementptr inbounds %"class.Ipopt::FilterLSAcceptor", ptr %12, i32 0, i32 23
  %22 = load double, ptr %21, align 8
  %23 = call noundef double @_ZSt3absd(double noundef %22)
  %24 = fcmp ogt double %23, 1.000000e+01
  br i1 %24, label %25, label %30

25:                                               ; preds = %20
  %26 = getelementptr inbounds %"class.Ipopt::FilterLSAcceptor", ptr %12, i32 0, i32 23
  %27 = load double, ptr %26, align 8
  %28 = call noundef double @_ZSt3absd(double noundef %27)
  %29 = call double @log10(double noundef %28) #3
  store double %29, ptr %10, align 8
  br label %30

30:                                               ; preds = %25, %20
  %31 = load double, ptr %7, align 8
  %32 = getelementptr inbounds %"class.Ipopt::FilterLSAcceptor", ptr %12, i32 0, i32 23
  %33 = load double, ptr %32, align 8
  %34 = fsub double %31, %33
  %35 = call double @log10(double noundef %34) #3
  %36 = getelementptr inbounds %"class.Ipopt::FilterLSAcceptor", ptr %12, i32 0, i32 14
  %37 = load double, ptr %36, align 8
  %38 = load double, ptr %10, align 8
  %39 = fadd double %37, %38
  %40 = fcmp ogt double %35, %39
  br i1 %40, label %41, label %49

41:                                               ; preds = %30
  %42 = call noundef nonnull align 8 dereferenceable(40) ptr @_ZNK5Ipopt23AlgorithmStrategyObject5JnlstEv(ptr noundef nonnull align 8 dereferenceable(49) %12)
  %43 = getelementptr inbounds %"class.Ipopt::FilterLSAcceptor", ptr %12, i32 0, i32 23
  %44 = load double, ptr %43, align 8
  %45 = load double, ptr %7, align 8
  %46 = load ptr, ptr %42, align 8
  %47 = getelementptr inbounds ptr, ptr %46, i64 2
  %48 = load ptr, ptr %47, align 8
  call void (ptr, i32, i32, ptr, ...) %48(ptr noundef nonnull align 8 dereferenceable(40) %42, i32 noundef 6, i32 noundef 8, ptr noundef @.str.85, double noundef %44, double noundef %45)
  store i1 false, ptr %5, align 1
  br label %77

49:                                               ; preds = %30
  br label %50

50:                                               ; preds = %49, %15, %4
  %51 = load double, ptr %8, align 8
  %52 = getelementptr inbounds %"class.Ipopt::FilterLSAcceptor", ptr %12, i32 0, i32 10
  %53 = load double, ptr %52, align 8
  %54 = fsub double 1.000000e+00, %53
  %55 = getelementptr inbounds %"class.Ipopt::FilterLSAcceptor", ptr %12, i32 0, i32 22
  %56 = load double, ptr %55, align 8
  %57 = fmul double %54, %56
  %58 = getelementptr inbounds %"class.Ipopt::FilterLSAcceptor", ptr %12, i32 0, i32 22
  %59 = load double, ptr %58, align 8
  %60 = call noundef zeroext i1 @_ZN5Ipopt10Compare_leEddd(double noundef %51, double noundef %57, double noundef %59)
  br i1 %60, label %75, label %61

61:                                               ; preds = %50
  %62 = load double, ptr %7, align 8
  %63 = getelementptr inbounds %"class.Ipopt::FilterLSAcceptor", ptr %12, i32 0, i32 23
  %64 = load double, ptr %63, align 8
  %65 = fsub double %62, %64
  %66 = getelementptr inbounds %"class.Ipopt::FilterLSAcceptor", ptr %12, i32 0, i32 9
  %67 = load double, ptr %66, align 8
  %68 = fneg double %67
  %69 = getelementptr inbounds %"class.Ipopt::FilterLSAcceptor", ptr %12, i32 0, i32 22
  %70 = load double, ptr %69, align 8
  %71 = fmul double %68, %70
  %72 = getelementptr inbounds %"class.Ipopt::FilterLSAcceptor", ptr %12, i32 0, i32 23
  %73 = load double, ptr %72, align 8
  %74 = call noundef zeroext i1 @_ZN5Ipopt10Compare_leEddd(double noundef %65, double noundef %71, double noundef %73)
  br label %75

75:                                               ; preds = %61, %50
  %76 = phi i1 [ true, %50 ], [ %74, %61 ]
  store i1 %76, ptr %5, align 1
  br label %77

77:                                               ; preds = %75, %41
  %78 = load i1, ptr %5, align 1
  ret i1 %78
}