; Function Attrs: mustprogress uwtable
define noundef zeroext i1 @_ZNK5Ipopt16FilterLSAcceptor28IsAcceptableToCurrentIterateEddb(ptr nocapture noundef nonnull readonly align 8 dereferenceable(304) %0, double noundef %1, double noundef %2, i1 noundef zeroext %3) local_unnamed_addr #3 align 2 {
  br i1 %3, label %29, label %5

5:                                                ; preds = %4
  %6 = getelementptr inbounds i8, ptr %0, i64 208
  %7 = load double, ptr %6, align 8
  %8 = fcmp olt double %7, %1
  br i1 %8, label %9, label %29

9:                                                ; preds = %5
  %10 = tail call noundef double @llvm.fabs.f64(double %7)
  %11 = fcmp ogt double %10, 1.000000e+01
  br i1 %11, label %12, label %14

12:                                               ; preds = %9
  %13 = tail call double @log10(double noundef %10) #19
  %.pre = load double, ptr %6, align 8
  br label %14

14:                                               ; preds = %12, %9
  %15 = phi double [ %.pre, %12 ], [ %7, %9 ]
  %.0 = phi double [ %13, %12 ], [ 1.000000e+00, %9 ]
  %16 = fsub double %1, %15
  %17 = tail call double @log10(double noundef %16) #19
  %18 = getelementptr inbounds i8, ptr %0, i64 160
  %19 = load double, ptr %18, align 8
  %20 = fadd double %.0, %19
  %21 = fcmp ogt double %17, %20
  br i1 %21, label %22, label %29

22:                                               ; preds = %14
  %23 = getelementptr inbounds i8, ptr %0, i64 16
  %24 = load ptr, ptr %23, align 8
  %25 = load double, ptr %6, align 8
  %26 = load ptr, ptr %24, align 8
  %27 = getelementptr inbounds i8, ptr %26, i64 16
  %28 = load ptr, ptr %27, align 8
  tail call void (ptr, i32, i32, ptr, ...) %28(ptr noundef nonnull align 8 dereferenceable(40) %24, i32 noundef 6, i32 noundef 8, ptr noundef nonnull @.str.85, double noundef %25, double noundef %1)
  br label %47

29:                                               ; preds = %14, %5, %4
  %30 = getelementptr inbounds i8, ptr %0, i64 128
  %31 = load double, ptr %30, align 8
  %32 = fsub double 1.000000e+00, %31
  %33 = getelementptr inbounds i8, ptr %0, i64 200
  %34 = load double, ptr %33, align 8
  %35 = fmul double %32, %34
  %36 = tail call noundef zeroext i1 @_ZN5Ipopt10Compare_leEddd(double noundef %2, double noundef %35, double noundef %34)
  br i1 %36, label %47, label %37

37:                                               ; preds = %29
  %38 = getelementptr inbounds i8, ptr %0, i64 208
  %39 = load double, ptr %38, align 8
  %40 = fsub double %1, %39
  %41 = getelementptr inbounds i8, ptr %0, i64 120
  %42 = load double, ptr %41, align 8
  %43 = fneg double %42
  %44 = load double, ptr %33, align 8
  %45 = fmul double %44, %43
  %46 = tail call noundef zeroext i1 @_ZN5Ipopt10Compare_leEddd(double noundef %40, double noundef %45, double noundef %39)
  br label %47

47:                                               ; preds = %29, %37, %22
  %.08 = phi i1 [ false, %22 ], [ true, %29 ], [ %46, %37 ]
  ret i1 %.08
}